target datalayout = "e-m:e-p270:32:32-p271:32:32-p272:64:64-i64:64-i128:128-f80:128-n8:16:32:64-S128"
target triple = "x86_64-pc-linux-gnu"

%"struct.llvm::KnownBits" = type { %"class.llvm::APInt", %"class.llvm::APInt" }
%"class.llvm::APInt" = type <{ %union.anon, i32, [4 x i8] }>
%union.anon = type { i64 }

; Function Attrs: mustprogress nounwind uwtable
define linkonce_odr hidden noundef zeroext i1 @_ZNK4llvm5APInt12isSingleWordEv(ptr noundef nonnull align 8 dereferenceable(12) %0) #0 comdat align 2 {
  %2 = alloca ptr, align 8
  store ptr %0, ptr %2, align 8
  %3 = load ptr, ptr %2, align 8
  %4 = getelementptr inbounds nuw %"class.llvm::APInt", ptr %3, i32 0, i32 1
  %5 = load i32, ptr %4, align 8
  %6 = icmp ule i32 %5, 64
  ret i1 %6
}

; Function Attrs: mustprogress nounwind uwtable
define linkonce_odr hidden noundef zeroext i1 @_ZNK4llvm5APInt12needsCleanupEv(ptr noundef nonnull align 8 dereferenceable(12) %0) #0 comdat align 2 {
  %2 = alloca ptr, align 8
  store ptr %0, ptr %2, align 8
  %3 = load ptr, ptr %2, align 8
  %4 = call noundef zeroext i1 @_ZNK4llvm5APInt12isSingleWordEv(ptr noundef nonnull align 8 dereferenceable(12) %3)
  %5 = xor i1 %4, true
  ret i1 %5
}

; Function Attrs: mustprogress nounwind uwtable
define linkonce_odr hidden void @_ZN4llvm5APIntC2EOS0_(ptr noundef nonnull align 8 dereferenceable(12) %0, ptr noundef nonnull align 8 dereferenceable(12) %1) unnamed_addr #0 comdat align 2 {
  %3 = alloca ptr, align 8
  %4 = alloca ptr, align 8
  store ptr %0, ptr %3, align 8
  store ptr %1, ptr %4, align 8
  %5 = load ptr, ptr %3, align 8
  %6 = getelementptr inbounds nuw %"class.llvm::APInt", ptr %5, i32 0, i32 1
  %7 = load ptr, ptr %4, align 8
  %8 = getelementptr inbounds nuw %"class.llvm::APInt", ptr %7, i32 0, i32 1
  %9 = load i32, ptr %8, align 8
  store i32 %9, ptr %6, align 8
  %10 = getelementptr inbounds nuw %"class.llvm::APInt", ptr %5, i32 0, i32 0
  %11 = load ptr, ptr %4, align 8
  %12 = getelementptr inbounds nuw %"class.llvm::APInt", ptr %11, i32 0, i32 0
  call void @llvm.memcpy.p0.p0.i64(ptr align 8 %10, ptr align 8 %12, i64 8, i1 false)
  %13 = load ptr, ptr %4, align 8
  %14 = getelementptr inbounds nuw %"class.llvm::APInt", ptr %13, i32 0, i32 1
  store i32 0, ptr %14, align 8
  ret void
}

; Function Attrs: mustprogress nounwind uwtable
define linkonce_odr hidden void @_ZN4llvm5APIntD2Ev(ptr noundef nonnull align 8 dereferenceable(12) %0) unnamed_addr #0 comdat align 2 {
  %2 = alloca ptr, align 8
  store ptr %0, ptr %2, align 8
  %3 = load ptr, ptr %2, align 8
  %4 = call noundef zeroext i1 @_ZNK4llvm5APInt12needsCleanupEv(ptr noundef nonnull align 8 dereferenceable(12) %3)
  br i1 %4, label %5, label %11

5:                                                ; preds = %1
  %6 = getelementptr inbounds nuw %"class.llvm::APInt", ptr %3, i32 0, i32 0
  %7 = load ptr, ptr %6, align 8
  %8 = icmp eq ptr %7, null
  br i1 %8, label %10, label %9

9:                                                ; preds = %5
  call void @_ZdaPv(ptr noundef %7) #9
  br label %10

10:                                               ; preds = %9, %5
  br label %11

11:                                               ; preds = %10, %1
  ret void
}

; Function Attrs: mustprogress nounwind uwtable
define linkonce_odr hidden void @_ZN4llvm9KnownBitsC2ENS_5APIntES1_(ptr noundef nonnull align 8 dereferenceable(32) %0, ptr noundef %1, ptr noundef %2) unnamed_addr #0 comdat align 2 {
  %4 = alloca ptr, align 8
  %5 = alloca ptr, align 8
  %6 = alloca ptr, align 8
  store ptr %0, ptr %4, align 8
  store ptr %1, ptr %5, align 8
  store ptr %2, ptr %6, align 8
  %7 = load ptr, ptr %4, align 8
  %8 = getelementptr inbounds nuw %"struct.llvm::KnownBits", ptr %7, i32 0, i32 0
  call void @_ZN4llvm5APIntC2EOS0_(ptr noundef nonnull align 8 dereferenceable(12) %8, ptr noundef nonnull align 8 dereferenceable(12) %1)
  %9 = getelementptr inbounds nuw %"struct.llvm::KnownBits", ptr %7, i32 0, i32 1
  call void @_ZN4llvm5APIntC2EOS0_(ptr noundef nonnull align 8 dereferenceable(12) %9, ptr noundef nonnull align 8 dereferenceable(12) %2)
  ret void
}

; Function Attrs: mustprogress nounwind uwtable
define linkonce_odr hidden noundef i32 @_ZNK4llvm5APInt11getBitWidthEv(ptr noundef nonnull align 8 dereferenceable(12) %0) #0 comdat align 2 {
  %2 = alloca ptr, align 8
  store ptr %0, ptr %2, align 8
  %3 = load ptr, ptr %2, align 8
  %4 = getelementptr inbounds nuw %"class.llvm::APInt", ptr %3, i32 0, i32 1
  %5 = load i32, ptr %4, align 8
  ret i32 %5
}

; Function Attrs: mustprogress nounwind uwtable
define linkonce_odr hidden void @_ZN4llvm9KnownBitsD2Ev(ptr noundef nonnull align 8 dereferenceable(32) %0) unnamed_addr #0 comdat align 2 {
  %2 = alloca ptr, align 8
  store ptr %0, ptr %2, align 8
  %3 = load ptr, ptr %2, align 8
  %4 = getelementptr inbounds nuw %"struct.llvm::KnownBits", ptr %3, i32 0, i32 1
  call void @_ZN4llvm5APIntD2Ev(ptr noundef nonnull align 8 dereferenceable(12) %4) #8
  %5 = getelementptr inbounds nuw %"struct.llvm::KnownBits", ptr %3, i32 0, i32 0
  call void @_ZN4llvm5APIntD2Ev(ptr noundef nonnull align 8 dereferenceable(12) %5) #8
  ret void
}

; Function Attrs: mustprogress nounwind uwtable
define linkonce_odr hidden void @_ZNK4llvm9KnownBits11extractBitsEjj(ptr dead_on_unwind noalias writable sret(%"struct.llvm::KnownBits") align 8 %0, ptr noundef nonnull align 8 dereferenceable(32) %1, i32 noundef %2, i32 noundef %3) #0 comdat align 2 {
  %5 = alloca ptr, align 8
  %6 = alloca ptr, align 8
  %7 = alloca i32, align 4
  %8 = alloca i32, align 4
  %9 = alloca %"class.llvm::APInt", align 8
  %10 = alloca %"class.llvm::APInt", align 8
  store ptr %0, ptr %5, align 8
  store ptr %1, ptr %6, align 8
  store i32 %2, ptr %7, align 4
  store i32 %3, ptr %8, align 4
  %11 = load ptr, ptr %6, align 8
  %12 = getelementptr inbounds nuw %"struct.llvm::KnownBits", ptr %11, i32 0, i32 0
  %13 = load i32, ptr %7, align 4
  %14 = load i32, ptr %8, align 4
  call void @_ZNK4llvm5APInt11extractBitsEjj(ptr dead_on_unwind writable sret(%"class.llvm::APInt") align 8 %9, ptr noundef nonnull align 8 dereferenceable(12) %12, i32 noundef %13, i32 noundef %14)
  %15 = getelementptr inbounds nuw %"struct.llvm::KnownBits", ptr %11, i32 0, i32 1
  %16 = load i32, ptr %7, align 4
  %17 = load i32, ptr %8, align 4
  call void @_ZNK4llvm5APInt11extractBitsEjj(ptr dead_on_unwind writable sret(%"class.llvm::APInt") align 8 %10, ptr noundef nonnull align 8 dereferenceable(12) %15, i32 noundef %16, i32 noundef %17)
  call void @_ZN4llvm9KnownBitsC2ENS_5APIntES1_(ptr noundef nonnull align 8 dereferenceable(32) %0, ptr noundef %9, ptr noundef %10)
  call void @_ZN4llvm5APIntD2Ev(ptr noundef nonnull align 8 dereferenceable(12) %10) #8
  call void @_ZN4llvm5APIntD2Ev(ptr noundef nonnull align 8 dereferenceable(12) %9) #8
  ret void
}

; Function Attrs: mustprogress nounwind uwtable
define linkonce_odr hidden noundef i32 @_ZNK4llvm9KnownBits11getBitWidthEv(ptr noundef nonnull align 8 dereferenceable(32) %0) #0 comdat align 2 {
  %2 = alloca ptr, align 8
  store ptr %0, ptr %2, align 8
  %3 = load ptr, ptr %2, align 8
  %4 = getelementptr inbounds nuw %"struct.llvm::KnownBits", ptr %3, i32 0, i32 0
  %5 = call noundef i32 @_ZNK4llvm5APInt11getBitWidthEv(ptr noundef nonnull align 8 dereferenceable(12) %4)
  ret i32 %5
}

; Function Attrs: mustprogress nounwind uwtable
define dso_local void @_ZN4llvm9KnownBits5mulhuERKS0_S2_(ptr dead_on_unwind noalias writable sret(%"struct.llvm::KnownBits") align 8 %0, ptr noundef nonnull align 8 dereferenceable(32) %1, ptr noundef nonnull align 8 dereferenceable(32) %2) #0 align 2 {
  %4 = alloca ptr, align 8
  %5 = alloca ptr, align 8
  %6 = alloca ptr, align 8
  %7 = alloca i32, align 4
  %8 = alloca %"struct.llvm::KnownBits", align 8
  %9 = alloca %"struct.llvm::KnownBits", align 8
  %10 = alloca %"struct.llvm::KnownBits", align 8
  store ptr %0, ptr %4, align 8
  store ptr %1, ptr %5, align 8
  store ptr %2, ptr %6, align 8
  %11 = load ptr, ptr %5, align 8
  %12 = call noundef i32 @_ZNK4llvm9KnownBits11getBitWidthEv(ptr noundef nonnull align 8 dereferenceable(32) %11)
  store i32 %12, ptr %7, align 4
  %13 = load ptr, ptr %5, align 8
  %14 = load i32, ptr %7, align 4
  %15 = mul i32 2, %14
  call void @_ZNK4llvm9KnownBits4zextEj(ptr dead_on_unwind writable sret(%"struct.llvm::KnownBits") align 8 %8, ptr noundef nonnull align 8 dereferenceable(32) %13, i32 noundef %15)
  %16 = load ptr, ptr %6, align 8
  %17 = load i32, ptr %7, align 4
  %18 = mul i32 2, %17
  call void @_ZNK4llvm9KnownBits4zextEj(ptr dead_on_unwind writable sret(%"struct.llvm::KnownBits") align 8 %9, ptr noundef nonnull align 8 dereferenceable(32) %16, i32 noundef %18)
  call void @_ZN4llvm9KnownBits3mulERKS0_S2_b(ptr dead_on_unwind writable sret(%"struct.llvm::KnownBits") align 8 %10, ptr noundef nonnull align 8 dereferenceable(32) %8, ptr noundef nonnull align 8 dereferenceable(32) %9, i1 noundef zeroext false)
  %19 = load i32, ptr %7, align 4
  %20 = load i32, ptr %7, align 4
  call void @_ZNK4llvm9KnownBits11extractBitsEjj(ptr dead_on_unwind writable sret(%"struct.llvm::KnownBits") align 8 %0, ptr noundef nonnull align 8 dereferenceable(32) %10, i32 noundef %19, i32 noundef %20)
  call void @_ZN4llvm9KnownBitsD2Ev(ptr noundef nonnull align 8 dereferenceable(32) %10) #8
  call void @_ZN4llvm9KnownBitsD2Ev(ptr noundef nonnull align 8 dereferenceable(32) %9) #8
  call void @_ZN4llvm9KnownBitsD2Ev(ptr noundef nonnull align 8 dereferenceable(32) %8) #8
  ret void
}