; Function Attrs: mustprogress nounwind uwtable
define dso_local void @_ZN4llvm9KnownBits5mulhuERKS0_S2_(ptr dead_on_unwind noalias nocapture writable writeonly sret(%"struct.llvm::KnownBits") align 8 %0, ptr noundef nonnull align 8 dereferenceable(32) %1, ptr noundef nonnull align 8 dereferenceable(32) %2) local_unnamed_addr #0 align 2 {
  %4 = alloca %"class.llvm::APInt", align 8
  %5 = alloca %"class.llvm::APInt", align 8
  %6 = alloca %"struct.llvm::KnownBits", align 8
  %7 = alloca %"struct.llvm::KnownBits", align 8
  %8 = alloca %"struct.llvm::KnownBits", align 8
  %9 = getelementptr inbounds nuw i8, ptr %1, i64 8
  %10 = load i32, ptr %9, align 8
  %11 = shl i32 %10, 1
  call void @_ZNK4llvm9KnownBits4zextEj(ptr dead_on_unwind nonnull writable sret(%"struct.llvm::KnownBits") align 8 %6, ptr noundef nonnull align 8 dereferenceable(32) %1, i32 noundef %11)
  call void @_ZNK4llvm9KnownBits4zextEj(ptr dead_on_unwind nonnull writable sret(%"struct.llvm::KnownBits") align 8 %7, ptr noundef nonnull align 8 dereferenceable(32) %2, i32 noundef %11)
  call void @_ZN4llvm9KnownBits3mulERKS0_S2_b(ptr dead_on_unwind nonnull writable sret(%"struct.llvm::KnownBits") align 8 %8, ptr noundef nonnull align 8 dereferenceable(32) %6, ptr noundef nonnull align 8 dereferenceable(32) %7, i1 noundef zeroext false)
  call void @llvm.experimental.noalias.scope.decl(metadata !378)
  call void @llvm.lifetime.start.p0(i64 16, ptr nonnull %4)
  call void @llvm.lifetime.start.p0(i64 16, ptr nonnull %5)
  call void @_ZNK4llvm5APInt11extractBitsEjj(ptr dead_on_unwind nonnull writable sret(%"class.llvm::APInt") align 8 %4, ptr noundef nonnull align 8 dereferenceable(12) %8, i32 noundef %10, i32 noundef %10) #11, !noalias !378
  %12 = getelementptr inbounds nuw i8, ptr %8, i64 16
  call void @_ZNK4llvm5APInt11extractBitsEjj(ptr dead_on_unwind nonnull writable sret(%"class.llvm::APInt") align 8 %5, ptr noundef nonnull align 8 dereferenceable(12) %12, i32 noundef %10, i32 noundef %10) #11, !noalias !378
  %13 = getelementptr inbounds nuw i8, ptr %0, i64 8
  %14 = getelementptr inbounds nuw i8, ptr %4, i64 8
  %15 = load i32, ptr %14, align 8, !noalias !378
  store i32 %15, ptr %13, align 8, !alias.scope !378
  %16 = load i64, ptr %4, align 8, !noalias !378
  store i64 %16, ptr %0, align 8, !alias.scope !378
  %17 = getelementptr inbounds nuw i8, ptr %0, i64 16
  %18 = getelementptr inbounds i8, ptr %0, i64 24
  %19 = getelementptr inbounds nuw i8, ptr %5, i64 8
  %20 = load i32, ptr %19, align 8, !noalias !378
  store i32 %20, ptr %18, align 8, !alias.scope !378
  %21 = load i64, ptr %5, align 8, !noalias !378
  store i64 %21, ptr %17, align 8, !alias.scope !378
  call void @llvm.lifetime.end.p0(i64 16, ptr nonnull %4)
  call void @llvm.lifetime.end.p0(i64 16, ptr nonnull %5)
  %22 = getelementptr inbounds i8, ptr %8, i64 24
  %23 = load i32, ptr %22, align 8
  %24 = icmp ugt i32 %23, 64
  br i1 %24, label %25, label %_ZN4llvm5APIntD2Ev.exit.i

25:                                               ; preds = %3
  %26 = load ptr, ptr %12, align 8
  %27 = icmp eq ptr %26, null
  br i1 %27, label %_ZN4llvm5APIntD2Ev.exit.i, label %28

28:                                               ; preds = %25
  call void @_ZdaPv(ptr noundef nonnull %26) #12
  br label %_ZN4llvm5APIntD2Ev.exit.i

_ZN4llvm5APIntD2Ev.exit.i:                        ; preds = %28, %25, %3
  %29 = getelementptr inbounds nuw i8, ptr %8, i64 8
  %30 = load i32, ptr %29, align 8
  %31 = icmp ugt i32 %30, 64
  br i1 %31, label %32, label %_ZN4llvm9KnownBitsD2Ev.exit

32:                                               ; preds = %_ZN4llvm5APIntD2Ev.exit.i
  %33 = load ptr, ptr %8, align 8
  %34 = icmp eq ptr %33, null
  br i1 %34, label %_ZN4llvm9KnownBitsD2Ev.exit, label %35

35:                                               ; preds = %32
  call void @_ZdaPv(ptr noundef nonnull %33) #12
  br label %_ZN4llvm9KnownBitsD2Ev.exit

_ZN4llvm9KnownBitsD2Ev.exit:                      ; preds = %_ZN4llvm5APIntD2Ev.exit.i, %32, %35
  %36 = getelementptr inbounds i8, ptr %7, i64 24
  %37 = load i32, ptr %36, align 8
  %38 = icmp ugt i32 %37, 64
  br i1 %38, label %39, label %_ZN4llvm5APIntD2Ev.exit.i6

39:                                               ; preds = %_ZN4llvm9KnownBitsD2Ev.exit
  %40 = getelementptr inbounds nuw i8, ptr %7, i64 16
  %41 = load ptr, ptr %40, align 8
  %42 = icmp eq ptr %41, null
  br i1 %42, label %_ZN4llvm5APIntD2Ev.exit.i6, label %43

43:                                               ; preds = %39
  call void @_ZdaPv(ptr noundef nonnull %41) #12
  br label %_ZN4llvm5APIntD2Ev.exit.i6

_ZN4llvm5APIntD2Ev.exit.i6:                       ; preds = %43, %39, %_ZN4llvm9KnownBitsD2Ev.exit
  %44 = getelementptr inbounds nuw i8, ptr %7, i64 8
  %45 = load i32, ptr %44, align 8
  %46 = icmp ugt i32 %45, 64
  br i1 %46, label %47, label %_ZN4llvm9KnownBitsD2Ev.exit7

47:                                               ; preds = %_ZN4llvm5APIntD2Ev.exit.i6
  %48 = load ptr, ptr %7, align 8
  %49 = icmp eq ptr %48, null
  br i1 %49, label %_ZN4llvm9KnownBitsD2Ev.exit7, label %50

50:                                               ; preds = %47
  call void @_ZdaPv(ptr noundef nonnull %48) #12
  br label %_ZN4llvm9KnownBitsD2Ev.exit7

_ZN4llvm9KnownBitsD2Ev.exit7:                     ; preds = %_ZN4llvm5APIntD2Ev.exit.i6, %47, %50
  %51 = getelementptr inbounds i8, ptr %6, i64 24
  %52 = load i32, ptr %51, align 8
  %53 = icmp ugt i32 %52, 64
  br i1 %53, label %54, label %_ZN4llvm5APIntD2Ev.exit.i8

54:                                               ; preds = %_ZN4llvm9KnownBitsD2Ev.exit7
  %55 = getelementptr inbounds nuw i8, ptr %6, i64 16
  %56 = load ptr, ptr %55, align 8
  %57 = icmp eq ptr %56, null
  br i1 %57, label %_ZN4llvm5APIntD2Ev.exit.i8, label %58

58:                                               ; preds = %54
  call void @_ZdaPv(ptr noundef nonnull %56) #12
  br label %_ZN4llvm5APIntD2Ev.exit.i8

_ZN4llvm5APIntD2Ev.exit.i8:                       ; preds = %58, %54, %_ZN4llvm9KnownBitsD2Ev.exit7
  %59 = getelementptr inbounds nuw i8, ptr %6, i64 8
  %60 = load i32, ptr %59, align 8
  %61 = icmp ugt i32 %60, 64
  br i1 %61, label %62, label %_ZN4llvm9KnownBitsD2Ev.exit9

62:                                               ; preds = %_ZN4llvm5APIntD2Ev.exit.i8
  %63 = load ptr, ptr %6, align 8
  %64 = icmp eq ptr %63, null
  br i1 %64, label %_ZN4llvm9KnownBitsD2Ev.exit9, label %65

65:                                               ; preds = %62
  call void @_ZdaPv(ptr noundef nonnull %63) #12
  br label %_ZN4llvm9KnownBitsD2Ev.exit9

_ZN4llvm9KnownBitsD2Ev.exit9:                     ; preds = %_ZN4llvm5APIntD2Ev.exit.i8, %62, %65
  ret void
}